; Function Attrs: mustprogress uwtable
define hidden void @_ZN4cvc58internal6StringC2ERKNSt7__cxx1112basic_stringIwSt11char_traitsIwESaIwEEE(ptr noundef nonnull align 8 dereferenceable(24) %this, ptr noundef nonnull align 8 dereferenceable(32) %s) unnamed_addr #3 align 2 personality ptr @__gxx_personality_v0 {
entry:
  tail call void @llvm.memset.p0.i64(ptr noundef nonnull align 8 dereferenceable(24) %this, i8 0, i64 24, i1 false)
  %call = tail call noundef i64 @_ZNKSt7__cxx1112basic_stringIwSt11char_traitsIwESaIwEE4sizeEv(ptr noundef nonnull align 8 dereferenceable(32) %s) #18
  %_M_finish.i.i = getelementptr inbounds i8, ptr %this, i64 8
  %0 = load ptr, ptr %_M_finish.i.i, align 8
  %1 = load ptr, ptr %this, align 8
  %sub.ptr.lhs.cast.i.i = ptrtoint ptr %0 to i64
  %sub.ptr.rhs.cast.i.i = ptrtoint ptr %1 to i64
  %sub.ptr.sub.i.i = sub i64 %sub.ptr.lhs.cast.i.i, %sub.ptr.rhs.cast.i.i
  %sub.ptr.div.i.i = ashr exact i64 %sub.ptr.sub.i.i, 2
  %cmp.i = icmp ult i64 %sub.ptr.div.i.i, %call
  br i1 %cmp.i, label %if.then.i, label %if.else.i

if.then.i:                                        ; preds = %entry
  %sub.i = sub i64 %call, %sub.ptr.div.i.i
  invoke void @_ZNSt6vectorIjSaIjEE17_M_default_appendEm(ptr noundef nonnull align 8 dereferenceable(24) %this, i64 noundef %sub.i)
          to label %invoke.cont unwind label %lpad

if.else.i:                                        ; preds = %entry
  %cmp4.i = icmp ugt i64 %sub.ptr.div.i.i, %call
  br i1 %cmp4.i, label %if.then5.i, label %invoke.cont

if.then5.i:                                       ; preds = %if.else.i
  %add.ptr.i = getelementptr inbounds i32, ptr %1, i64 %call
  %tobool.not.i.i = icmp eq ptr %0, %add.ptr.i
  br i1 %tobool.not.i.i, label %invoke.cont, label %invoke.cont.i.i

invoke.cont.i.i:                                  ; preds = %if.then5.i
  store ptr %add.ptr.i, ptr %_M_finish.i.i, align 8
  br label %invoke.cont

invoke.cont:                                      ; preds = %invoke.cont.i.i, %if.then5.i, %if.else.i, %if.then.i
  %call3 = tail call noundef i64 @_ZNKSt7__cxx1112basic_stringIwSt11char_traitsIwESaIwEE4sizeEv(ptr noundef nonnull align 8 dereferenceable(32) %s) #18
  %cmp7.not = icmp eq i64 %call3, 0
  br i1 %cmp7.not, label %for.end, label %for.body

for.body:                                         ; preds = %invoke.cont, %for.body
  %i.08 = phi i64 [ %inc, %for.body ], [ 0, %invoke.cont ]
  %call4 = tail call noundef nonnull align 4 dereferenceable(4) ptr @_ZNKSt7__cxx1112basic_stringIwSt11char_traitsIwESaIwEEixEm(ptr noundef nonnull align 8 dereferenceable(32) %s, i64 noundef %i.08) #18
  %2 = load i32, ptr %call4, align 4
  %3 = load ptr, ptr %this, align 8
  %add.ptr.i6 = getelementptr inbounds i32, ptr %3, i64 %i.08
  store i32 %2, ptr %add.ptr.i6, align 4
  %inc = add nuw i64 %i.08, 1
  %exitcond.not = icmp eq i64 %inc, %call3
  br i1 %exitcond.not, label %for.end, label %for.body, !llvm.loop !4

lpad:                                             ; preds = %if.then.i
  %4 = landingpad { ptr, i32 }
          cleanup
  %5 = load ptr, ptr %this, align 8
  %tobool.not.i.i.i = icmp eq ptr %5, null
  br i1 %tobool.not.i.i.i, label %_ZNSt6vectorIjSaIjEED2Ev.exit, label %if.then.i.i.i

if.then.i.i.i:                                    ; preds = %lpad
  tail call void @_ZdlPv(ptr noundef nonnull %5) #19
  br label %_ZNSt6vectorIjSaIjEED2Ev.exit

_ZNSt6vectorIjSaIjEED2Ev.exit:                    ; preds = %lpad, %if.then.i.i.i
  resume { ptr, i32 } %4

for.end:                                          ; preds = %for.body, %invoke.cont
  ret void
}